target datalayout = "e-m:e-p270:32:32-p271:32:32-p272:64:64-i64:64-i128:128-f80:128-n8:16:32:64-S128"
target triple = "x86_64-pc-linux-gnu"

%struct.Abc_Ntk_t_ = type { i32, i32, ptr, ptr, ptr, ptr, ptr, ptr, ptr, ptr, ptr, ptr, ptr, [11 x i32], i32, i32, i32, i32, ptr, i32, ptr, ptr, i32, i32, i32, double, i32, %struct.Vec_Int_t_, ptr, ptr, ptr, ptr, ptr, float, i32, ptr, ptr, ptr, ptr, ptr, ptr, ptr, ptr, ptr, ptr, ptr, ptr, ptr, ptr, ptr, ptr, ptr, ptr, ptr, ptr, ptr }
%struct.Vec_Int_t_ = type { i32, i32, ptr }
%struct.Vec_Ptr_t_ = type { i32, i32, ptr }
%struct.Abc_Obj_t_ = type { ptr, ptr, i32, i32, %struct.Vec_Int_t_, %struct.Vec_Int_t_, %union.anon, %union.anon.0 }
%union.anon = type { ptr }
%union.anon.0 = type { ptr }

@.str.5 = private unnamed_addr constant [23 x i8] c".attrib white box seq\0A\00", align 1
@.str.6 = private unnamed_addr constant [24 x i8] c".attrib white box comb\0A\00", align 1
@.str.7 = private unnamed_addr constant [10 x i8] c".delay 1\0A\00", align 1
@.str.8 = private unnamed_addr constant [7 x i8] c".names\00", align 1
@.str.9 = private unnamed_addr constant [8 x i8] c" %s_in\0A\00", align 1
@.str.10 = private unnamed_addr constant [5 x i8] c" %s\0A\00", align 1
@.str.11 = private unnamed_addr constant [2 x i8] c"1\00", align 1
@.str.12 = private unnamed_addr constant [4 x i8] c" 1\0A\00", align 1
@.str.13 = private unnamed_addr constant [19 x i8] c".latch %s_in %s 1\0A\00", align 1

; Function Attrs: nounwind uwtable
define internal ptr @Vec_PtrEntry(ptr noundef %0, i32 noundef %1) #0 {
  %3 = alloca ptr, align 8
  %4 = alloca i32, align 4
  store ptr %0, ptr %3, align 8
  store i32 %1, ptr %4, align 4
  %5 = load ptr, ptr %3, align 8
  %6 = getelementptr inbounds %struct.Vec_Ptr_t_, ptr %5, i32 0, i32 2
  %7 = load ptr, ptr %6, align 8
  %8 = load i32, ptr %4, align 4
  %9 = sext i32 %8 to i64
  %10 = getelementptr inbounds ptr, ptr %7, i64 %9
  %11 = load ptr, ptr %10, align 8
  ret ptr %11
}

; Function Attrs: nounwind uwtable
define internal i32 @Vec_PtrSize(ptr noundef %0) #0 {
  %2 = alloca ptr, align 8
  store ptr %0, ptr %2, align 8
  %3 = load ptr, ptr %2, align 8
  %4 = getelementptr inbounds %struct.Vec_Ptr_t_, ptr %3, i32 0, i32 1
  %5 = load i32, ptr %4, align 4
  ret i32 %5
}

; Function Attrs: nounwind uwtable
define internal i32 @Abc_NtkPiNum(ptr noundef %0) #0 {
  %2 = alloca ptr, align 8
  store ptr %0, ptr %2, align 8
  %3 = load ptr, ptr %2, align 8
  %4 = getelementptr inbounds %struct.Abc_Ntk_t_, ptr %3, i32 0, i32 6
  %5 = load ptr, ptr %4, align 8
  %6 = call i32 @Vec_PtrSize(ptr noundef %5)
  ret i32 %6
}

; Function Attrs: nounwind uwtable
define internal ptr @Abc_ObjFanin0(ptr noundef %0) #0 {
  %2 = alloca ptr, align 8
  store ptr %0, ptr %2, align 8
  %3 = load ptr, ptr %2, align 8
  %4 = getelementptr inbounds %struct.Abc_Obj_t_, ptr %3, i32 0, i32 0
  %5 = load ptr, ptr %4, align 8
  %6 = getelementptr inbounds %struct.Abc_Ntk_t_, ptr %5, i32 0, i32 5
  %7 = load ptr, ptr %6, align 8
  %8 = getelementptr inbounds %struct.Vec_Ptr_t_, ptr %7, i32 0, i32 2
  %9 = load ptr, ptr %8, align 8
  %10 = load ptr, ptr %2, align 8
  %11 = getelementptr inbounds %struct.Abc_Obj_t_, ptr %10, i32 0, i32 4
  %12 = getelementptr inbounds %struct.Vec_Int_t_, ptr %11, i32 0, i32 2
  %13 = load ptr, ptr %12, align 8
  %14 = getelementptr inbounds i32, ptr %13, i64 0
  %15 = load i32, ptr %14, align 4
  %16 = sext i32 %15 to i64
  %17 = getelementptr inbounds ptr, ptr %9, i64 %16
  %18 = load ptr, ptr %17, align 8
  ret ptr %18
}

; Function Attrs: nounwind uwtable
define internal ptr @Abc_NtkPo(ptr noundef %0, i32 noundef %1) #0 {
  %3 = alloca ptr, align 8
  %4 = alloca i32, align 4
  store ptr %0, ptr %3, align 8
  store i32 %1, ptr %4, align 4
  %5 = load ptr, ptr %3, align 8
  %6 = getelementptr inbounds %struct.Abc_Ntk_t_, ptr %5, i32 0, i32 7
  %7 = load ptr, ptr %6, align 8
  %8 = load i32, ptr %4, align 4
  %9 = call ptr @Vec_PtrEntry(ptr noundef %7, i32 noundef %8)
  ret ptr %9
}

; Function Attrs: nounwind uwtable
define internal i32 @Abc_NtkPoNum(ptr noundef %0) #0 {
  %2 = alloca ptr, align 8
  store ptr %0, ptr %2, align 8
  %3 = load ptr, ptr %2, align 8
  %4 = getelementptr inbounds %struct.Abc_Ntk_t_, ptr %3, i32 0, i32 7
  %5 = load ptr, ptr %4, align 8
  %6 = call i32 @Vec_PtrSize(ptr noundef %5)
  ret i32 %6
}

; Function Attrs: nounwind uwtable
define void @Io_NtkWriteConvertedBox(ptr noundef %0, ptr noundef %1, i32 noundef %2) #0 {
  %4 = alloca ptr, align 8
  %5 = alloca ptr, align 8
  %6 = alloca i32, align 4
  %7 = alloca ptr, align 8
  %8 = alloca i32, align 4
  %9 = alloca i32, align 4
  store ptr %0, ptr %4, align 8
  store ptr %1, ptr %5, align 8
  store i32 %2, ptr %6, align 4
  %10 = load i32, ptr %6, align 4
  %11 = icmp ne i32 %10, 0
  br i1 %11, label %12, label %15

12:                                               ; preds = %3
  %13 = load ptr, ptr %4, align 8
  %14 = call i32 (ptr, ptr, ...) @fprintf(ptr noundef %13, ptr noundef @.str.5) #7
  br label %20

15:                                               ; preds = %3
  %16 = load ptr, ptr %4, align 8
  %17 = call i32 (ptr, ptr, ...) @fprintf(ptr noundef %16, ptr noundef @.str.6) #7
  %18 = load ptr, ptr %4, align 8
  %19 = call i32 (ptr, ptr, ...) @fprintf(ptr noundef %18, ptr noundef @.str.7) #7
  br label %20

20:                                               ; preds = %15, %12
  store i32 0, ptr %8, align 4
  br label %21

21:                                               ; preds = %78, %20
  %22 = load i32, ptr %8, align 4
  %23 = load ptr, ptr %5, align 8
  %24 = call i32 @Abc_NtkPoNum(ptr noundef %23)
  %25 = icmp slt i32 %22, %24
  br i1 %25, label %26, label %30

26:                                               ; preds = %21
  %27 = load ptr, ptr %5, align 8
  %28 = load i32, ptr %8, align 4
  %29 = call ptr @Abc_NtkPo(ptr noundef %27, i32 noundef %28)
  store ptr %29, ptr %7, align 8
  br label %30

30:                                               ; preds = %26, %21
  %31 = phi i1 [ false, %21 ], [ true, %26 ]
  br i1 %31, label %32, label %81

32:                                               ; preds = %30
  %33 = load ptr, ptr %4, align 8
  %34 = call i32 (ptr, ptr, ...) @fprintf(ptr noundef %33, ptr noundef @.str.8) #7
  %35 = load ptr, ptr %4, align 8
  %36 = load ptr, ptr %5, align 8
  call void @Io_NtkWritePis(ptr noundef %35, ptr noundef %36, i32 noundef 1)
  %37 = load i32, ptr %6, align 4
  %38 = icmp ne i32 %37, 0
  br i1 %38, label %39, label %45

39:                                               ; preds = %32
  %40 = load ptr, ptr %4, align 8
  %41 = load ptr, ptr %7, align 8
  %42 = call ptr @Abc_ObjFanin0(ptr noundef %41)
  %43 = call ptr @Abc_ObjName(ptr noundef %42)
  %44 = call i32 (ptr, ptr, ...) @fprintf(ptr noundef %40, ptr noundef @.str.9, ptr noundef %43) #7
  br label %51

45:                                               ; preds = %32
  %46 = load ptr, ptr %4, align 8
  %47 = load ptr, ptr %7, align 8
  %48 = call ptr @Abc_ObjFanin0(ptr noundef %47)
  %49 = call ptr @Abc_ObjName(ptr noundef %48)
  %50 = call i32 (ptr, ptr, ...) @fprintf(ptr noundef %46, ptr noundef @.str.10, ptr noundef %49) #7
  br label %51

51:                                               ; preds = %45, %39
  store i32 0, ptr %9, align 4
  br label %52

52:                                               ; preds = %60, %51
  %53 = load i32, ptr %9, align 4
  %54 = load ptr, ptr %5, align 8
  %55 = call i32 @Abc_NtkPiNum(ptr noundef %54)
  %56 = icmp slt i32 %53, %55
  br i1 %56, label %57, label %63

57:                                               ; preds = %52
  %58 = load ptr, ptr %4, align 8
  %59 = call i32 (ptr, ptr, ...) @fprintf(ptr noundef %58, ptr noundef @.str.11) #7
  br label %60

60:                                               ; preds = %57
  %61 = load i32, ptr %9, align 4
  %62 = add nsw i32 %61, 1
  store i32 %62, ptr %9, align 4
  br label %52, !llvm.loop !6

63:                                               ; preds = %52
  %64 = load ptr, ptr %4, align 8
  %65 = call i32 (ptr, ptr, ...) @fprintf(ptr noundef %64, ptr noundef @.str.12) #7
  %66 = load i32, ptr %6, align 4
  %67 = icmp ne i32 %66, 0
  br i1 %67, label %68, label %77

68:                                               ; preds = %63
  %69 = load ptr, ptr %4, align 8
  %70 = load ptr, ptr %7, align 8
  %71 = call ptr @Abc_ObjFanin0(ptr noundef %70)
  %72 = call ptr @Abc_ObjName(ptr noundef %71)
  %73 = load ptr, ptr %7, align 8
  %74 = call ptr @Abc_ObjFanin0(ptr noundef %73)
  %75 = call ptr @Abc_ObjName(ptr noundef %74)
  %76 = call i32 (ptr, ptr, ...) @fprintf(ptr noundef %69, ptr noundef @.str.13, ptr noundef %72, ptr noundef %75) #7
  br label %77

77:                                               ; preds = %68, %63
  br label %78

78:                                               ; preds = %77
  %79 = load i32, ptr %8, align 4
  %80 = add nsw i32 %79, 1
  store i32 %80, ptr %8, align 4
  br label %21, !llvm.loop !7

81:                                               ; preds = %30
  ret void
}