; Function Attrs: nounwind uwtable
define void @Io_NtkWriteConvertedBox(ptr noundef captures(none) %0, ptr noundef readonly captures(none) %1, i32 noundef %2) local_unnamed_addr #0 {
  %.not = icmp eq i32 %2, 0
  br i1 %.not, label %6, label %4

4:                                                ; preds = %3
  %5 = tail call i64 @fwrite(ptr nonnull @.str.5, i64 22, i64 1, ptr %0)
  br label %9

6:                                                ; preds = %3
  %7 = tail call i64 @fwrite(ptr nonnull @.str.6, i64 23, i64 1, ptr %0)
  %8 = tail call i64 @fwrite(ptr nonnull @.str.7, i64 9, i64 1, ptr %0)
  br label %9

9:                                                ; preds = %6, %4
  %10 = getelementptr i8, ptr %1, i64 48
  %.val2639 = load ptr, ptr %10, align 8
  %11 = getelementptr i8, ptr %.val2639, i64 4
  %.val26.val40 = load i32, ptr %11, align 4
  %12 = icmp sgt i32 %.val26.val40, 0
  br i1 %12, label %.lr.ph44, label %.critedge

.lr.ph44:                                         ; preds = %9
  %13 = getelementptr i8, ptr %1, i64 40
  %.str.10..str.9 = select i1 %.not, ptr @.str.10, ptr @.str.9
  br label %14

14:                                               ; preds = %.lr.ph44, %48
  %indvars.iv = phi i64 [ 0, %.lr.ph44 ], [ %indvars.iv.next, %48 ]
  %.val2642 = phi ptr [ %.val2639, %.lr.ph44 ], [ %.val26, %48 ]
  %15 = getelementptr i8, ptr %.val2642, i64 8
  %.val27.val = load ptr, ptr %15, align 8
  %16 = getelementptr inbounds nuw ptr, ptr %.val27.val, i64 %indvars.iv
  %17 = load ptr, ptr %16, align 8
  %18 = tail call i64 @fwrite(ptr nonnull @.str.8, i64 6, i64 1, ptr %0)
  tail call fastcc void @Io_NtkWritePis(ptr noundef %0, ptr noundef nonnull %1, i32 noundef 1)
  %.val30 = load ptr, ptr %17, align 8
  %19 = getelementptr i8, ptr %17, i64 32
  %.val31 = load ptr, ptr %19, align 8
  %20 = getelementptr i8, ptr %.val30, i64 32
  %.val30.val = load ptr, ptr %20, align 8
  %.val31.val = load i32, ptr %.val31, align 4
  %21 = getelementptr i8, ptr %.val30.val, i64 8
  %.val30.val.val = load ptr, ptr %21, align 8
  %22 = sext i32 %.val31.val to i64
  %23 = getelementptr inbounds ptr, ptr %.val30.val.val, i64 %22
  %24 = load ptr, ptr %23, align 8
  %25 = tail call ptr @Abc_ObjName(ptr noundef %24) #10
  %26 = tail call i32 (ptr, ptr, ...) @fprintf(ptr noundef %0, ptr noundef nonnull %.str.10..str.9, ptr noundef %25) #10
  %.val36 = load ptr, ptr %13, align 8
  %27 = getelementptr i8, ptr %.val36, i64 4
  %.val.val37 = load i32, ptr %27, align 4
  %28 = icmp sgt i32 %.val.val37, 0
  br i1 %28, label %.lr.ph, label %._crit_edge

.lr.ph:                                           ; preds = %14, %.lr.ph
  %.038 = phi i32 [ %29, %.lr.ph ], [ 0, %14 ]
  %fputc = tail call i32 @fputc(i32 49, ptr %0)
  %29 = add nuw nsw i32 %.038, 1
  %.val = load ptr, ptr %13, align 8
  %30 = getelementptr i8, ptr %.val, i64 4
  %.val.val = load i32, ptr %30, align 4
  %31 = icmp slt i32 %29, %.val.val
  br i1 %31, label %.lr.ph, label %._crit_edge, !llvm.loop !6

._crit_edge:                                      ; preds = %.lr.ph, %14
  %32 = tail call i64 @fwrite(ptr nonnull @.str.12, i64 3, i64 1, ptr %0)
  br i1 %.not, label %48, label %33

33:                                               ; preds = %._crit_edge
  %.val32 = load ptr, ptr %17, align 8
  %34 = getelementptr i8, ptr %17, i64 32
  %.val33 = load ptr, ptr %34, align 8
  %35 = getelementptr i8, ptr %.val32, i64 32
  %.val32.val = load ptr, ptr %35, align 8
  %.val33.val = load i32, ptr %.val33, align 4
  %36 = getelementptr i8, ptr %.val32.val, i64 8
  %.val32.val.val = load ptr, ptr %36, align 8
  %37 = sext i32 %.val33.val to i64
  %38 = getelementptr inbounds ptr, ptr %.val32.val.val, i64 %37
  %39 = load ptr, ptr %38, align 8
  %40 = tail call ptr @Abc_ObjName(ptr noundef %39) #10
  %.val34 = load ptr, ptr %17, align 8
  %.val35 = load ptr, ptr %34, align 8
  %41 = getelementptr i8, ptr %.val34, i64 32
  %.val34.val = load ptr, ptr %41, align 8
  %.val35.val = load i32, ptr %.val35, align 4
  %42 = getelementptr i8, ptr %.val34.val, i64 8
  %.val34.val.val = load ptr, ptr %42, align 8
  %43 = sext i32 %.val35.val to i64
  %44 = getelementptr inbounds ptr, ptr %.val34.val.val, i64 %43
  %45 = load ptr, ptr %44, align 8
  %46 = tail call ptr @Abc_ObjName(ptr noundef %45) #10
  %47 = tail call i32 (ptr, ptr, ...) @fprintf(ptr noundef %0, ptr noundef nonnull @.str.13, ptr noundef %40, ptr noundef %46) #10
  br label %48

48:                                               ; preds = %._crit_edge, %33
  %indvars.iv.next = add nuw nsw i64 %indvars.iv, 1
  %.val26 = load ptr, ptr %10, align 8
  %49 = getelementptr i8, ptr %.val26, i64 4
  %.val26.val = load i32, ptr %49, align 4
  %50 = sext i32 %.val26.val to i64
  %51 = icmp slt i64 %indvars.iv.next, %50
  br i1 %51, label %14, label %.critedge, !llvm.loop !7

.critedge:                                        ; preds = %48, %9
  ret void
}